; Function Attrs: nounwind uwtable
define noalias noundef ptr @ARKodeSPRKTable_Load(i32 noundef %0) local_unnamed_addr #5 {
  switch i32 %0, label %arkodeSymplecticEuler.exit [
    i32 0, label %2
    i32 1, label %11
    i32 2, label %13
    i32 3, label %15
    i32 4, label %17
    i32 5, label %19
    i32 7, label %21
    i32 6, label %23
    i32 8, label %25
    i32 9, label %27
    i32 10, label %29
    i32 11, label %31
  ]

2:                                                ; preds = %1
  %calloc.i.i = tail call dereferenceable_or_null(24) ptr @calloc(i64 1, i64 24)
  %.not.i.i = icmp eq ptr %calloc.i.i, null
  br i1 %.not.i.i, label %arkodeSymplecticEuler.exit, label %3

3:                                                ; preds = %2
  %4 = tail call noalias dereferenceable_or_null(8) ptr @malloc(i64 noundef 8) #13
  %5 = getelementptr inbounds nuw i8, ptr %calloc.i.i, i64 16
  store ptr %4, ptr %5, align 8, !tbaa !3
  %.not14.i.i = icmp eq ptr %4, null
  br i1 %.not14.i.i, label %ARKodeSPRKTable_Free.exit.i.i, label %6

ARKodeSPRKTable_Free.exit.i.i:                    ; preds = %3
  tail call void @free(ptr noundef nonnull %calloc.i.i) #14
  br label %arkodeSymplecticEuler.exit

6:                                                ; preds = %3
  %7 = tail call noalias dereferenceable_or_null(8) ptr @malloc(i64 noundef 8) #13
  %8 = getelementptr inbounds nuw i8, ptr %calloc.i.i, i64 8
  store ptr %7, ptr %8, align 8, !tbaa !10
  %.not15.i.i = icmp eq ptr %7, null
  br i1 %.not15.i.i, label %ARKodeSPRKTable_Free.exit19.i.i, label %9

ARKodeSPRKTable_Free.exit19.i.i:                  ; preds = %6
  tail call void @free(ptr noundef nonnull %4) #14
  tail call void @free(ptr noundef nonnull %calloc.i.i) #14
  br label %arkodeSymplecticEuler.exit

9:                                                ; preds = %6
  %10 = getelementptr inbounds nuw i8, ptr %calloc.i.i, i64 4
  store i32 1, ptr %calloc.i.i, align 8, !tbaa !12
  store i32 1, ptr %10, align 4, !tbaa !11
  store double 1.000000e+00, ptr %7, align 8, !tbaa !13
  store double 1.000000e+00, ptr %4, align 8, !tbaa !13
  br label %arkodeSymplecticEuler.exit

11:                                               ; preds = %1
  %12 = tail call fastcc ptr @arkodeSymplecticLeapfrog2()
  br label %arkodeSymplecticEuler.exit

13:                                               ; preds = %1
  %14 = tail call fastcc ptr @arkodeSymplecticPseudoLeapfrog2()
  br label %arkodeSymplecticEuler.exit

15:                                               ; preds = %1
  %16 = tail call fastcc ptr @arkodeSymplecticRuth3()
  br label %arkodeSymplecticEuler.exit

17:                                               ; preds = %1
  %18 = tail call fastcc ptr @arkodeSymplecticMcLachlan2()
  br label %arkodeSymplecticEuler.exit

19:                                               ; preds = %1
  %20 = tail call fastcc ptr @arkodeSymplecticMcLachlan3()
  br label %arkodeSymplecticEuler.exit

21:                                               ; preds = %1
  %22 = tail call fastcc ptr @arkodeSymplecticMcLachlan4()
  br label %arkodeSymplecticEuler.exit

23:                                               ; preds = %1
  %24 = tail call fastcc ptr @arkodeSymplecticCandyRozmus4()
  br label %arkodeSymplecticEuler.exit

25:                                               ; preds = %1
  %26 = tail call fastcc ptr @arkodeSymplecticMcLachlan5()
  br label %arkodeSymplecticEuler.exit

27:                                               ; preds = %1
  %28 = tail call fastcc ptr @arkodeSymplecticYoshida6()
  br label %arkodeSymplecticEuler.exit

29:                                               ; preds = %1
  %30 = tail call fastcc ptr @arkodeSymplecticSuzukiUmeno816()
  br label %arkodeSymplecticEuler.exit

31:                                               ; preds = %1
  %32 = tail call fastcc ptr @arkodeSymplecticSofroniou10()
  br label %arkodeSymplecticEuler.exit

arkodeSymplecticEuler.exit:                       ; preds = %9, %ARKodeSPRKTable_Free.exit19.i.i, %ARKodeSPRKTable_Free.exit.i.i, %2, %1, %31, %29, %27, %25, %23, %21, %19, %17, %15, %13, %11
  %.0 = phi ptr [ %32, %31 ], [ %30, %29 ], [ %28, %27 ], [ %26, %25 ], [ %24, %23 ], [ %22, %21 ], [ %20, %19 ], [ %18, %17 ], [ %16, %15 ], [ %14, %13 ], [ %12, %11 ], [ null, %1 ], [ %calloc.i.i, %9 ], [ null, %ARKodeSPRKTable_Free.exit19.i.i ], [ null, %ARKodeSPRKTable_Free.exit.i.i ], [ null, %2 ]
  ret ptr %.0
}